; Function Attrs: mustprogress uwtable
define noundef i32 @_ZNK14RtpAudioStream11outputStateEv(ptr nocapture noundef nonnull readonly align 8 dereferenceable(7680) %0) local_unnamed_addr #0 align 2 {
  %2 = getelementptr inbounds i8, ptr %0, i64 7672
  %3 = load ptr, ptr %2, align 8
  %.not = icmp eq ptr %3, null
  br i1 %.not, label %6, label %4

4:                                                ; preds = %1
  %5 = tail call noundef i32 @_ZNK10QAudioSink5stateEv(ptr noundef nonnull align 8 dereferenceable(24) %3)
  br label %6

6:                                                ; preds = %1, %4
  %.0 = phi i32 [ %5, %4 ], [ 3, %1 ]
  ret i32 %.0
}